; Function Attrs: mustprogress uwtable
define noundef nonnull align 8 dereferenceable(180) ptr @_ZN2cv5gimpl5proto9origin_ofERKNS_4GArgE(ptr nocapture noundef nonnull readonly align 8 dereferenceable(16) %0) local_unnamed_addr #3 personality ptr @__gxx_personality_v0 {
  %2 = alloca %"class.cv::util::variant", align 8
  call void @_ZN2cv5gimpl5proto6rewrapERKNS_4GArgE(ptr dead_on_unwind nonnull writable sret(%"class.cv::util::variant") align 8 %2, ptr noundef nonnull align 8 dereferenceable(16) %0)
  %3 = invoke noundef nonnull align 8 dereferenceable(180) ptr @_ZN2cv5gimpl5proto9origin_ofERKNS_4util7variantIJNS_4GMatENS_5GMatPENS_6GFrameENS_7GScalarENS_6detail7GArrayUENS8_8GOpaqueUEEEE(ptr noundef nonnull align 8 dereferenceable(40) %2)
          to label %4 unwind label %12

4:                                                ; preds = %1
  %5 = load i64, ptr %2, align 8
  %6 = getelementptr inbounds [6 x ptr], ptr @constinit, i64 0, i64 %5
  %7 = load ptr, ptr %6, align 8
  %8 = getelementptr inbounds i8, ptr %2, i64 8
  invoke void %7(ptr noundef nonnull %8)
          to label %_ZN2cv4util7variantIJNS_4GMatENS_5GMatPENS_6GFrameENS_7GScalarENS_6detail7GArrayUENS6_8GOpaqueUEEED2Ev.exit unwind label %9

9:                                                ; preds = %4
  %10 = landingpad { ptr, i32 }
          catch ptr null
  %11 = extractvalue { ptr, i32 } %10, 0
  call void @__clang_call_terminate(ptr %11) #21
  unreachable

_ZN2cv4util7variantIJNS_4GMatENS_5GMatPENS_6GFrameENS_7GScalarENS_6detail7GArrayUENS6_8GOpaqueUEEED2Ev.exit: ; preds = %4
  ret ptr %3

12:                                               ; preds = %1
  %13 = landingpad { ptr, i32 }
          cleanup
  %14 = load i64, ptr %2, align 8
  %15 = getelementptr inbounds [6 x ptr], ptr @constinit, i64 0, i64 %14
  %16 = load ptr, ptr %15, align 8
  %17 = getelementptr inbounds i8, ptr %2, i64 8
  invoke void %16(ptr noundef nonnull %17)
          to label %_ZN2cv4util7variantIJNS_4GMatENS_5GMatPENS_6GFrameENS_7GScalarENS_6detail7GArrayUENS6_8GOpaqueUEEED2Ev.exit2 unwind label %18

18:                                               ; preds = %12
  %19 = landingpad { ptr, i32 }
          catch ptr null
  %20 = extractvalue { ptr, i32 } %19, 0
  call void @__clang_call_terminate(ptr %20) #21
  unreachable

_ZN2cv4util7variantIJNS_4GMatENS_5GMatPENS_6GFrameENS_7GScalarENS_6detail7GArrayUENS6_8GOpaqueUEEED2Ev.exit2: ; preds = %12
  resume { ptr, i32 } %13
}